target datalayout = "e-m:e-p270:32:32-p271:32:32-p272:64:64-i64:64-i128:128-f80:128-n8:16:32:64-S128"
target triple = "x86_64-pc-linux-gnu"

%struct.Branch = type { %struct.Rect, ptr }
%struct.Rect = type { [4 x i32] }
%struct.Node = type { i32, i32, [64 x %struct.Branch] }

; Function Attrs: nounwind uwtable
define i32 @RTreeInsert(ptr noundef %0, ptr noundef %1, ptr noundef %2, ptr noundef %3, i32 noundef %4) #0 {
  %6 = alloca ptr, align 8
  %7 = alloca ptr, align 8
  %8 = alloca ptr, align 8
  %9 = alloca ptr, align 8
  %10 = alloca i32, align 4
  %11 = alloca ptr, align 8
  %12 = alloca %struct.Branch, align 8
  %13 = alloca i32, align 4
  %14 = alloca i64, align 8
  %15 = alloca ptr, align 8
  %16 = alloca %struct.Rect, align 4
  %17 = alloca %struct.Rect, align 4
  store ptr %0, ptr %6, align 8, !tbaa !15
  store ptr %1, ptr %7, align 8, !tbaa !32
  store ptr %2, ptr %8, align 8, !tbaa !38
  store ptr %3, ptr %9, align 8, !tbaa !39
  store i32 %4, ptr %10, align 4, !tbaa !27
  call void @llvm.lifetime.start.p0(i64 8, ptr %11) #6
  store ptr null, ptr %11, align 8, !tbaa !23
  call void @llvm.lifetime.start.p0(i64 24, ptr %12) #6
  call void @llvm.lifetime.start.p0(i64 4, ptr %13) #6
  store i32 0, ptr %13, align 4, !tbaa !27
  call void @llvm.lifetime.start.p0(i64 8, ptr %14) #6
  store i64 0, ptr %14, align 8, !tbaa !34
  br label %18

18:                                               ; preds = %23, %5
  %19 = load i64, ptr %14, align 8, !tbaa !34
  %20 = icmp ult i64 %19, 2
  br i1 %20, label %22, label %21

21:                                               ; preds = %18
  call void @llvm.lifetime.end.p0(i64 8, ptr %14) #6
  br label %26

22:                                               ; preds = %18
  br label %23

23:                                               ; preds = %22
  %24 = load i64, ptr %14, align 8, !tbaa !34
  %25 = add i64 %24, 1
  store i64 %25, ptr %14, align 8, !tbaa !34
  br label %18, !llvm.loop !41

26:                                               ; preds = %21
  %27 = load ptr, ptr %6, align 8, !tbaa !15
  %28 = load ptr, ptr %7, align 8, !tbaa !32
  %29 = load ptr, ptr %8, align 8, !tbaa !38
  %30 = load ptr, ptr %9, align 8, !tbaa !39
  %31 = load ptr, ptr %30, align 8, !tbaa !23
  %32 = load i32, ptr %10, align 4, !tbaa !27
  %33 = call i32 @RTreeInsert2(ptr noundef %27, ptr noundef %28, ptr noundef %29, ptr noundef %31, ptr noundef %11, i32 noundef %32)
  %34 = icmp ne i32 %33, 0
  br i1 %34, label %35, label %74

35:                                               ; preds = %26
  call void @llvm.lifetime.start.p0(i64 8, ptr %15) #6
  %36 = call ptr @RTreeNewNode()
  store ptr %36, ptr %15, align 8, !tbaa !23
  %37 = load ptr, ptr %9, align 8, !tbaa !39
  %38 = load ptr, ptr %37, align 8, !tbaa !23
  %39 = getelementptr inbounds nuw %struct.Node, ptr %38, i32 0, i32 1
  %40 = load i32, ptr %39, align 4, !tbaa !24
  %41 = add nsw i32 %40, 1
  %42 = load ptr, ptr %15, align 8, !tbaa !23
  %43 = getelementptr inbounds nuw %struct.Node, ptr %42, i32 0, i32 1
  store i32 %41, ptr %43, align 4, !tbaa !24
  %44 = getelementptr inbounds nuw %struct.Branch, ptr %12, i32 0, i32 0
  call void @llvm.lifetime.start.p0(i64 16, ptr %16) #6
  %45 = load ptr, ptr %9, align 8, !tbaa !39
  %46 = load ptr, ptr %45, align 8, !tbaa !23
  %47 = call { i64, i64 } @NodeCover(ptr noundef %46)
  %48 = getelementptr inbounds nuw %struct.Rect, ptr %16, i32 0, i32 0
  %49 = getelementptr inbounds nuw { i64, i64 }, ptr %48, i32 0, i32 0
  %50 = extractvalue { i64, i64 } %47, 0
  store i64 %50, ptr %49, align 4
  %51 = getelementptr inbounds nuw { i64, i64 }, ptr %48, i32 0, i32 1
  %52 = extractvalue { i64, i64 } %47, 1
  store i64 %52, ptr %51, align 4
  call void @llvm.memcpy.p0.p0.i64(ptr align 8 %44, ptr align 4 %16, i64 16, i1 false), !tbaa.struct !42
  call void @llvm.lifetime.end.p0(i64 16, ptr %16) #6
  %53 = load ptr, ptr %9, align 8, !tbaa !39
  %54 = load ptr, ptr %53, align 8, !tbaa !23
  %55 = getelementptr inbounds nuw %struct.Branch, ptr %12, i32 0, i32 1
  store ptr %54, ptr %55, align 8, !tbaa !28
  %56 = load ptr, ptr %6, align 8, !tbaa !15
  %57 = load ptr, ptr %15, align 8, !tbaa !23
  %58 = call i32 @AddBranch(ptr noundef %56, ptr noundef %12, ptr noundef %57, ptr noundef null)
  %59 = getelementptr inbounds nuw %struct.Branch, ptr %12, i32 0, i32 0
  call void @llvm.lifetime.start.p0(i64 16, ptr %17) #6
  %60 = load ptr, ptr %11, align 8, !tbaa !23
  %61 = call { i64, i64 } @NodeCover(ptr noundef %60)
  %62 = getelementptr inbounds nuw %struct.Rect, ptr %17, i32 0, i32 0
  %63 = getelementptr inbounds nuw { i64, i64 }, ptr %62, i32 0, i32 0
  %64 = extractvalue { i64, i64 } %61, 0
  store i64 %64, ptr %63, align 4
  %65 = getelementptr inbounds nuw { i64, i64 }, ptr %62, i32 0, i32 1
  %66 = extractvalue { i64, i64 } %61, 1
  store i64 %66, ptr %65, align 4
  call void @llvm.memcpy.p0.p0.i64(ptr align 8 %59, ptr align 4 %17, i64 16, i1 false), !tbaa.struct !42
  call void @llvm.lifetime.end.p0(i64 16, ptr %17) #6
  %67 = load ptr, ptr %11, align 8, !tbaa !23
  %68 = getelementptr inbounds nuw %struct.Branch, ptr %12, i32 0, i32 1
  store ptr %67, ptr %68, align 8, !tbaa !28
  %69 = load ptr, ptr %6, align 8, !tbaa !15
  %70 = load ptr, ptr %15, align 8, !tbaa !23
  %71 = call i32 @AddBranch(ptr noundef %69, ptr noundef %12, ptr noundef %70, ptr noundef null)
  %72 = load ptr, ptr %15, align 8, !tbaa !23
  %73 = load ptr, ptr %9, align 8, !tbaa !39
  store ptr %72, ptr %73, align 8, !tbaa !23
  store i32 1, ptr %13, align 4, !tbaa !27
  call void @llvm.lifetime.end.p0(i64 8, ptr %15) #6
  br label %74

74:                                               ; preds = %35, %26
  %75 = load i32, ptr %13, align 4, !tbaa !27
  call void @llvm.lifetime.end.p0(i64 4, ptr %13) #6
  call void @llvm.lifetime.end.p0(i64 24, ptr %12) #6
  call void @llvm.lifetime.end.p0(i64 8, ptr %11) #6
  ret i32 %75
}