; Function Attrs: nounwind uwtable
define range(i32 0, 2) i32 @RTreeInsert(ptr noundef %0, ptr noundef %1, ptr noundef %2, ptr noundef captures(none) %3, i32 noundef %4) local_unnamed_addr #3 {
  %6 = alloca ptr, align 8
  %7 = alloca %struct.Branch, align 8
  call void @llvm.lifetime.start.p0(i64 8, ptr nonnull %6) #8
  store ptr null, ptr %6, align 8, !tbaa !29
  call void @llvm.lifetime.start.p0(i64 24, ptr nonnull %7) #8
  %8 = load ptr, ptr %3, align 8, !tbaa !29
  %9 = call fastcc i32 @RTreeInsert2(ptr noundef %0, ptr noundef %1, ptr noundef %2, ptr noundef %8, ptr noundef %6, i32 noundef %4)
  %.not = icmp eq i32 %9, 0
  br i1 %.not, label %29, label %10

10:                                               ; preds = %5
  %11 = call ptr @RTreeNewNode() #8
  %12 = load ptr, ptr %3, align 8, !tbaa !29
  %13 = getelementptr inbounds nuw i8, ptr %12, i64 4
  %14 = load i32, ptr %13, align 4, !tbaa !13
  %15 = add nsw i32 %14, 1
  %16 = getelementptr inbounds nuw i8, ptr %11, i64 4
  store i32 %15, ptr %16, align 4, !tbaa !13
  %17 = call { i64, i64 } @NodeCover(ptr noundef %12) #8
  %18 = extractvalue { i64, i64 } %17, 0
  %19 = extractvalue { i64, i64 } %17, 1
  store i64 %18, ptr %7, align 8
  %.sroa.42.0..sroa_idx = getelementptr inbounds nuw i8, ptr %7, i64 8
  store i64 %19, ptr %.sroa.42.0..sroa_idx, align 8, !tbaa !30
  %20 = load ptr, ptr %3, align 8, !tbaa !29
  %21 = getelementptr inbounds nuw i8, ptr %7, i64 16
  store ptr %20, ptr %21, align 8, !tbaa !22
  %22 = call i32 @AddBranch(ptr noundef %0, ptr noundef nonnull %7, ptr noundef %11, ptr noundef null) #8
  %23 = load ptr, ptr %6, align 8, !tbaa !29
  %24 = call { i64, i64 } @NodeCover(ptr noundef %23) #8
  %25 = extractvalue { i64, i64 } %24, 0
  %26 = extractvalue { i64, i64 } %24, 1
  store i64 %25, ptr %7, align 8
  store i64 %26, ptr %.sroa.42.0..sroa_idx, align 8, !tbaa !30
  %27 = load ptr, ptr %6, align 8, !tbaa !29
  store ptr %27, ptr %21, align 8, !tbaa !22
  %28 = call i32 @AddBranch(ptr noundef %0, ptr noundef nonnull %7, ptr noundef %11, ptr noundef null) #8
  store ptr %11, ptr %3, align 8, !tbaa !29
  br label %29

29:                                               ; preds = %10, %5
  %.0 = phi i32 [ 1, %10 ], [ 0, %5 ]
  call void @llvm.lifetime.end.p0(i64 24, ptr nonnull %7) #8
  call void @llvm.lifetime.end.p0(i64 8, ptr nonnull %6) #8
  ret i32 %.0
}